; ModuleID = 'source-C-CXX/53/383.c'
source_filename = "source-C-CXX/53/383.c"
target datalayout = "e-m:e-p270:32:32-p271:32:32-p272:64:64-i64:64-f80:128-n8:16:32:64-S128"
target triple = "x86_64-pc-linux-gnu"

@.str = private unnamed_addr constant [5 x i8] c"%d%d\00", align 1
@.str.1 = private unnamed_addr constant [3 x i8] c"%d\00", align 1

; Function Attrs: nofree nounwind sspstrong uwtable
define dso_local void @main() local_unnamed_addr #0 {
  %1 = alloca i32, align 4
  %2 = alloca i32, align 4
  %3 = alloca [300 x i32], align 16
  %4 = bitcast i32* %1 to i8*
  call void @llvm.lifetime.start.p0i8(i64 4, i8* nonnull %4) #3
  %5 = bitcast i32* %2 to i8*
  call void @llvm.lifetime.start.p0i8(i64 4, i8* nonnull %5) #3
  %6 = bitcast [300 x i32]* %3 to i8*
  call void @llvm.lifetime.start.p0i8(i64 1200, i8* nonnull %6) #3
  %7 = call i32 (i8*, ...) @__isoc99_scanf(i8* getelementptr inbounds ([5 x i8], [5 x i8]* @.str, i64 0, i64 0), i32* nonnull %1, i32* nonnull %2)
  %8 = load i32, i32* %1, align 4, !tbaa !5
  %9 = load i32, i32* %2, align 4, !tbaa !5
  %10 = sext i32 %8 to i64
  %11 = getelementptr inbounds [300 x i32], [300 x i32]* %3, i64 0, i64 %10
  %12 = add nsw i32 %8, -1
  %13 = icmp sgt i32 %8, 1
  br i1 %13, label %14, label %37

14:                                               ; preds = %0
  %15 = zext i32 %8 to i64
  %16 = getelementptr inbounds [300 x i32], [300 x i32]* %3, i64 0, i64 %15
  br label %17

17:                                               ; preds = %14, %27
  %18 = phi i32 [ %28, %27 ], [ 1, %14 ]
  %19 = mul nsw i32 %8, %18
  %20 = add nsw i32 %19, %9
  store i32 %20, i32* %11, align 4, !tbaa !5
  %21 = load i32, i32* %16, align 4, !tbaa !5
  br label %22

22:                                               ; preds = %17, %29
  %23 = phi i32 [ %21, %17 ], [ %32, %29 ]
  %24 = phi i32 [ %8, %17 ], [ %33, %29 ]
  %25 = srem i32 %23, %12
  %26 = icmp eq i32 %25, 0
  br i1 %26, label %29, label %27

27:                                               ; preds = %22
  %28 = add nuw nsw i32 %18, 1
  br label %17

29:                                               ; preds = %22
  %30 = mul nsw i32 %23, %8
  %31 = sdiv i32 %30, %12
  %32 = add nsw i32 %31, %9
  %33 = add nsw i32 %24, -1
  %34 = zext i32 %33 to i64
  %35 = getelementptr inbounds [300 x i32], [300 x i32]* %3, i64 0, i64 %34
  store i32 %32, i32* %35, align 4, !tbaa !5
  %36 = icmp sgt i32 %24, 2
  br i1 %36, label %22, label %42, !llvm.loop !9

37:                                               ; preds = %0
  %38 = icmp eq i32 %8, 1
  br i1 %38, label %39, label %41

39:                                               ; preds = %37
  %40 = add nsw i32 %9, 1
  store i32 %40, i32* %11, align 4, !tbaa !5
  br label %42

41:                                               ; preds = %37, %41
  br label %41

42:                                               ; preds = %29, %39
  %43 = getelementptr inbounds [300 x i32], [300 x i32]* %3, i64 0, i64 1
  %44 = load i32, i32* %43, align 4, !tbaa !5
  %45 = call i32 (i8*, ...) @printf(i8* nonnull dereferenceable(1) getelementptr inbounds ([3 x i8], [3 x i8]* @.str.1, i64 0, i64 0), i32 %44)
  call void @llvm.lifetime.end.p0i8(i64 1200, i8* nonnull %6) #3
  call void @llvm.lifetime.end.p0i8(i64 4, i8* nonnull %5) #3
  call void @llvm.lifetime.end.p0i8(i64 4, i8* nonnull %4) #3
  ret void
}

; Function Attrs: argmemonly mustprogress nofree nosync nounwind willreturn
declare void @llvm.lifetime.start.p0i8(i64 immarg, i8* nocapture) #1

; Function Attrs: nofree nounwind
declare noundef i32 @__isoc99_scanf(i8* nocapture noundef readonly, ...) local_unnamed_addr #2

; Function Attrs: nofree nounwind
declare noundef i32 @printf(i8* nocapture noundef readonly, ...) local_unnamed_addr #2

; Function Attrs: argmemonly mustprogress nofree nosync nounwind willreturn
declare void @llvm.lifetime.end.p0i8(i64 immarg, i8* nocapture) #1


!llvm.module.flags = !{!0, !1, !2, !3}
!llvm.ident = !{!4}

!0 = !{i32 1, !"wchar_size", i32 4}
!1 = !{i32 7, !"PIC Level", i32 2}
!2 = !{i32 7, !"PIE Level", i32 2}
!3 = !{i32 7, !"uwtable", i32 1}
!4 = !{!"clang version 13.0.0"}
!5 = !{!6, !6, i64 0}
!6 = !{!"int", !7, i64 0}
!7 = !{!"omnipotent char", !8, i64 0}
!8 = !{!"Simple C/C++ TBAA"}
!9 = distinct !{!9, !10}
!10 = !{!"llvm.loop.mustprogress"}
